target datalayout = "e-m:e-p270:32:32-p271:32:32-p272:64:64-i64:64-i128:128-f80:128-n8:16:32:64-S128"
target triple = "x86_64-pc-linux-gnu"

@.str.1 = private unnamed_addr constant [11 x i8] c"relcache.c\00", align 1
@.str.85 = private unnamed_addr constant [30 x i8] c"could not write init file: %m\00", align 1
@__func__.write_item = private unnamed_addr constant [11 x i8] c"write_item\00", align 1

; Function Attrs: nounwind uwtable
define internal void @write_item(ptr noundef %0, i64 noundef %1, ptr noundef %2) #0 {
  %4 = alloca ptr, align 8
  %5 = alloca i64, align 8
  %6 = alloca ptr, align 8
  store ptr %0, ptr %4, align 8
  store i64 %1, ptr %5, align 8
  store ptr %2, ptr %6, align 8
  %7 = load ptr, ptr %6, align 8
  %8 = call i64 @fwrite(ptr noundef %5, i64 noundef 1, i64 noundef 8, ptr noundef %7)
  %9 = icmp ne i64 %8, 8
  br i1 %9, label %10, label %21

10:                                               ; preds = %3
  br label %11

11:                                               ; preds = %10
  br i1 true, label %12, label %14

12:                                               ; preds = %11
  %13 = call zeroext i1 @errstart_cold(i32 noundef 22, ptr noundef null) #12
  br i1 %13, label %16, label %19

14:                                               ; preds = %11
  %15 = call zeroext i1 @errstart(i32 noundef 22, ptr noundef null)
  br i1 %15, label %16, label %19

16:                                               ; preds = %14, %12
  %17 = call i32 @errcode_for_file_access()
  %18 = call i32 (ptr, ...) @errmsg_internal(ptr noundef @.str.85)
  call void @errfinish(ptr noundef @.str.1, i32 noundef 6725, ptr noundef @__func__.write_item)
  br label %19

19:                                               ; preds = %16, %14, %12
  unreachable

20:                                               ; No predecessors!
  br label %21

21:                                               ; preds = %20, %3
  %22 = load i64, ptr %5, align 8
  %23 = icmp ugt i64 %22, 0
  br i1 %23, label %24, label %42

24:                                               ; preds = %21
  %25 = load ptr, ptr %4, align 8
  %26 = load i64, ptr %5, align 8
  %27 = load ptr, ptr %6, align 8
  %28 = call i64 @fwrite(ptr noundef %25, i64 noundef 1, i64 noundef %26, ptr noundef %27)
  %29 = load i64, ptr %5, align 8
  %30 = icmp ne i64 %28, %29
  br i1 %30, label %31, label %42

31:                                               ; preds = %24
  br label %32

32:                                               ; preds = %31
  br i1 true, label %33, label %35

33:                                               ; preds = %32
  %34 = call zeroext i1 @errstart_cold(i32 noundef 22, ptr noundef null) #12
  br i1 %34, label %37, label %40

35:                                               ; preds = %32
  %36 = call zeroext i1 @errstart(i32 noundef 22, ptr noundef null)
  br i1 %36, label %37, label %40

37:                                               ; preds = %35, %33
  %38 = call i32 @errcode_for_file_access()
  %39 = call i32 (ptr, ...) @errmsg_internal(ptr noundef @.str.85)
  call void @errfinish(ptr noundef @.str.1, i32 noundef 6729, ptr noundef @__func__.write_item)
  br label %40

40:                                               ; preds = %37, %35, %33
  unreachable

41:                                               ; No predecessors!
  br label %42

42:                                               ; preds = %41, %24, %21
  ret void
}