; Function Attrs: nounwind uwtable
define internal fastcc void @write_item(ptr noundef captures(none) %0, i64 noundef range(i64 -8589803520, 8589541381) %1, ptr noundef nonnull captures(none) %2) unnamed_addr #0 {
  %4 = alloca i64, align 8
  store i64 %1, ptr %4, align 8
  %5 = call i64 @fwrite(ptr noundef nonnull %4, i64 noundef 1, i64 noundef 8, ptr noundef nonnull %2)
  %.not = icmp eq i64 %5, 8
  br i1 %.not, label %10, label %6

6:                                                ; preds = %3
  %7 = tail call zeroext i1 @errstart_cold(i32 noundef 22, ptr noundef null) #14
  tail call void @llvm.assume(i1 %7)
  %8 = tail call i32 @errcode_for_file_access() #13
  %9 = tail call i32 (ptr, ...) @errmsg_internal(ptr noundef nonnull @.str.85) #13
  tail call void @errfinish(ptr noundef nonnull @.str.1, i32 noundef 6725, ptr noundef nonnull @__func__.write_item) #13
  unreachable

10:                                               ; preds = %3
  %11 = load i64, ptr %4, align 8
  %.not3 = icmp eq i64 %11, 0
  br i1 %.not3, label %18, label %12

12:                                               ; preds = %10
  %13 = tail call i64 @fwrite(ptr noundef %0, i64 noundef 1, i64 noundef %11, ptr noundef nonnull %2)
  %.not4 = icmp eq i64 %13, %11
  br i1 %.not4, label %18, label %14

14:                                               ; preds = %12
  %15 = tail call zeroext i1 @errstart_cold(i32 noundef 22, ptr noundef null) #14
  tail call void @llvm.assume(i1 %15)
  %16 = tail call i32 @errcode_for_file_access() #13
  %17 = tail call i32 (ptr, ...) @errmsg_internal(ptr noundef nonnull @.str.85) #13
  tail call void @errfinish(ptr noundef nonnull @.str.1, i32 noundef 6729, ptr noundef nonnull @__func__.write_item) #13
  unreachable

18:                                               ; preds = %12, %10
  ret void
}